target datalayout = "e-m:e-p270:32:32-p271:32:32-p272:64:64-i64:64-i128:128-f80:128-n8:16:32:64-S128"
target triple = "x86_64-unknown-linux-gnu"

%"class.std::set.11" = type { %"class.std::_Rb_tree.12" }
%"class.std::_Rb_tree.12" = type { %"struct.std::_Rb_tree<QuantLib::Observer *, QuantLib::Observer *, std::_Identity<QuantLib::Observer *>, std::less<QuantLib::Observer *>>::_Rb_tree_impl" }
%"struct.std::_Rb_tree<QuantLib::Observer *, QuantLib::Observer *, std::_Identity<QuantLib::Observer *>, std::less<QuantLib::Observer *>>::_Rb_tree_impl" = type { [8 x i8], %"struct.std::_Rb_tree_header" }
%"struct.std::_Rb_tree_header" = type { %"struct.std::_Rb_tree_node_base", i64 }
%"struct.std::_Rb_tree_node_base" = type { i32, ptr, ptr, ptr }
%"class.boost::detail::shared_count" = type { ptr }
%"class.QuantLib::Array" = type { %"class.std::unique_ptr", i64 }
%"class.std::unique_ptr" = type { %"struct.std::__uniq_ptr_data" }
%"struct.std::__uniq_ptr_data" = type { %"class.std::__uniq_ptr_impl" }
%"class.std::__uniq_ptr_impl" = type { %"class.std::tuple" }
%"class.std::tuple" = type { %"struct.std::_Tuple_impl" }
%"struct.std::_Tuple_impl" = type { %"struct.std::_Head_base.1" }
%"struct.std::_Head_base.1" = type { ptr }
%"class.std::set" = type { %"class.std::_Rb_tree" }
%"class.std::_Rb_tree" = type { %"struct.std::_Rb_tree<boost::shared_ptr<QuantLib::Observable>, boost::shared_ptr<QuantLib::Observable>, std::_Identity<boost::shared_ptr<QuantLib::Observable>>, std::less<boost::shared_ptr<QuantLib::Observable>>>::_Rb_tree_impl" }
%"struct.std::_Rb_tree<boost::shared_ptr<QuantLib::Observable>, boost::shared_ptr<QuantLib::Observable>, std::_Identity<boost::shared_ptr<QuantLib::Observable>>, std::less<boost::shared_ptr<QuantLib::Observable>>>::_Rb_tree_impl" = type { [8 x i8], %"struct.std::_Rb_tree_header" }
%"class.QuantLib::Observable" = type { ptr, %"class.std::set.11" }
%"class.QuantLib::Parameter" = type { %"class.boost::shared_ptr.35", %"class.QuantLib::Array", %"class.QuantLib::Constraint" }
%"class.boost::shared_ptr.35" = type { ptr, %"class.boost::detail::shared_count" }
%"class.QuantLib::Constraint" = type { %"class.boost::shared_ptr.36" }
%"class.boost::shared_ptr.36" = type { ptr, %"class.boost::detail::shared_count" }
%"class.QuantLib::Vasicek" = type { %"class.QuantLib::OneFactorAffineModel.base", double, ptr, ptr, ptr, ptr, %"class.QuantLib::Observer", %"class.QuantLib::Observable" }
%"class.QuantLib::OneFactorAffineModel.base" = type { %"class.QuantLib::OneFactorModel.base", %"class.QuantLib::AffineModel.base" }
%"class.QuantLib::OneFactorModel.base" = type { %"class.QuantLib::ShortRateModel.base" }
%"class.QuantLib::ShortRateModel.base" = type { %"class.QuantLib::CalibratedModel.base" }
%"class.QuantLib::CalibratedModel.base" = type <{ ptr, %"class.std::vector.29", %"class.boost::shared_ptr.34", i32, [4 x i8], %"class.QuantLib::Array", i32 }>
%"class.std::vector.29" = type { %"struct.std::_Vector_base.30" }
%"struct.std::_Vector_base.30" = type { %"struct.std::_Vector_base<QuantLib::Parameter, std::allocator<QuantLib::Parameter>>::_Vector_impl" }
%"struct.std::_Vector_base<QuantLib::Parameter, std::allocator<QuantLib::Parameter>>::_Vector_impl" = type { %"struct.std::_Vector_base<QuantLib::Parameter, std::allocator<QuantLib::Parameter>>::_Vector_impl_data" }
%"struct.std::_Vector_base<QuantLib::Parameter, std::allocator<QuantLib::Parameter>>::_Vector_impl_data" = type { ptr, ptr, ptr }
%"class.boost::shared_ptr.34" = type { ptr, %"class.boost::detail::shared_count" }
%"class.QuantLib::AffineModel.base" = type { ptr }
%"class.QuantLib::Observer" = type { ptr, %"class.std::set" }

@.str.9 = private unnamed_addr constant [8 x i8] c"px != 0\00", align 1
@.str.10 = private unnamed_addr constant [102 x i8] c"generated/home/dtcxzyw/WorkSpace/SDK/vcpkg/installed/x64-linux/include/boost/smart_ptr/shared_ptr.hpp\00", align 1
@__PRETTY_FUNCTION__._ZNK5boost10shared_ptrIN8QuantLib9Parameter4ImplEEptEv = private unnamed_addr constant [147 x i8] c"typename boost::detail::sp_member_access<T>::type boost::shared_ptr<QuantLib::Parameter::Impl>::operator->() const [T = QuantLib::Parameter::Impl]\00", align 1

; Function Attrs: mustprogress uwtable
define linkonce_odr noundef ptr @_ZNK5boost10shared_ptrIN8QuantLib9Parameter4ImplEEptEv(ptr noundef nonnull align 8 dereferenceable(16) %this) #1 comdat align 2 {
entry:
  %this.addr = alloca ptr, align 8
  store ptr %this, ptr %this.addr, align 8, !tbaa !3
  %this1 = load ptr, ptr %this.addr, align 8
  %px = getelementptr inbounds nuw %"class.boost::shared_ptr.35", ptr %this1, i32 0, i32 0
  %0 = load ptr, ptr %px, align 8, !tbaa !93
  %cmp = icmp ne ptr %0, null
  %lnot = xor i1 %cmp, true
  %lnot2 = xor i1 %lnot, true
  %conv = zext i1 %lnot2 to i64
  %expval = call i64 @llvm.expect.i64(i64 %conv, i64 1)
  %tobool = icmp ne i64 %expval, 0
  br i1 %tobool, label %cond.true, label %cond.false

cond.true:                                        ; preds = %entry
  br label %cond.end

cond.false:                                       ; preds = %entry
  call void @_ZN5boost16assertion_failedEPKcS1_S1_l(ptr noundef @.str.9, ptr noundef @__PRETTY_FUNCTION__._ZNK5boost10shared_ptrIN8QuantLib9Parameter4ImplEEptEv, ptr noundef @.str.10, i64 noundef 784)
  br label %cond.end

cond.end:                                         ; preds = %cond.false, %cond.true
  %px3 = getelementptr inbounds nuw %"class.boost::shared_ptr.35", ptr %this1, i32 0, i32 0
  %1 = load ptr, ptr %px3, align 8, !tbaa !93
  ret ptr %1
}

; Function Attrs: mustprogress uwtable
define linkonce_odr noundef double @_ZNK8QuantLib9ParameterclEd(ptr noundef nonnull align 8 dereferenceable(48) %this, double noundef %t) #1 comdat align 2 {
entry:
  %this.addr = alloca ptr, align 8
  %t.addr = alloca double, align 8
  store ptr %this, ptr %this.addr, align 8, !tbaa !3
  store double %t, ptr %t.addr, align 8, !tbaa !11
  %this1 = load ptr, ptr %this.addr, align 8
  %impl_ = getelementptr inbounds nuw %"class.QuantLib::Parameter", ptr %this1, i32 0, i32 0
  %call = call noundef ptr @_ZNK5boost10shared_ptrIN8QuantLib9Parameter4ImplEEptEv(ptr noundef nonnull align 8 dereferenceable(16) %impl_)
  %params_ = getelementptr inbounds nuw %"class.QuantLib::Parameter", ptr %this1, i32 0, i32 1
  %0 = load double, ptr %t.addr, align 8, !tbaa !11
  %vtable = load ptr, ptr %call, align 8, !tbaa !7
  %vfn = getelementptr inbounds ptr, ptr %vtable, i64 2
  %1 = load ptr, ptr %vfn, align 8
  %call2 = call noundef double %1(ptr noundef nonnull align 8 dereferenceable(8) %call, ptr noundef nonnull align 8 dereferenceable(16) %params_, double noundef %0)
  ret double %call2
}

; Function Attrs: mustprogress uwtable
define linkonce_odr noundef double @_ZNK8QuantLib20OneFactorAffineModel12discountBondEddd(ptr noundef nonnull align 8 dereferenceable(88) %this, double noundef %now, double noundef %maturity, double noundef %rate) #1 comdat align 2 {
entry:
  %this.addr = alloca ptr, align 8
  %now.addr = alloca double, align 8
  %maturity.addr = alloca double, align 8
  %rate.addr = alloca double, align 8
  store ptr %this, ptr %this.addr, align 8, !tbaa !3
  store double %now, ptr %now.addr, align 8, !tbaa !11
  store double %maturity, ptr %maturity.addr, align 8, !tbaa !11
  store double %rate, ptr %rate.addr, align 8, !tbaa !11
  %this1 = load ptr, ptr %this.addr, align 8
  %0 = load double, ptr %now.addr, align 8, !tbaa !11
  %1 = load double, ptr %maturity.addr, align 8, !tbaa !11
  %vtable = load ptr, ptr %this1, align 8, !tbaa !7
  %vfn = getelementptr inbounds ptr, ptr %vtable, i64 10
  %2 = load ptr, ptr %vfn, align 8
  %call = call noundef double %2(ptr noundef nonnull align 8 dereferenceable(88) %this1, double noundef %0, double noundef %1)
  %3 = load double, ptr %now.addr, align 8, !tbaa !11
  %4 = load double, ptr %maturity.addr, align 8, !tbaa !11
  %vtable2 = load ptr, ptr %this1, align 8, !tbaa !7
  %vfn3 = getelementptr inbounds ptr, ptr %vtable2, i64 11
  %5 = load ptr, ptr %vfn3, align 8
  %call4 = call noundef double %5(ptr noundef nonnull align 8 dereferenceable(88) %this1, double noundef %3, double noundef %4)
  %fneg = fneg double %call4
  %6 = load double, ptr %rate.addr, align 8, !tbaa !11
  %mul = fmul double %fneg, %6
  %call5 = call double @exp(double noundef %mul) #15, !tbaa !47
  %mul6 = fmul double %call, %call5
  ret double %mul6
}

; Function Attrs: mustprogress uwtable
define linkonce_odr noundef double @_ZNK8QuantLib7Vasicek5sigmaEv(ptr noundef nonnull align 8 dereferenceable(128) %this) #1 comdat align 2 {
entry:
  %this.addr = alloca ptr, align 8
  store ptr %this, ptr %this.addr, align 8, !tbaa !3
  %this1 = load ptr, ptr %this.addr, align 8
  %sigma_ = getelementptr inbounds nuw %"class.QuantLib::Vasicek", ptr %this1, i32 0, i32 4
  %0 = load ptr, ptr %sigma_, align 8, !tbaa !44
  %call = call noundef double @_ZNK8QuantLib9ParameterclEd(ptr noundef nonnull align 8 dereferenceable(48) %0, double noundef 0.000000e+00)
  ret double %call
}

; Function Attrs: mustprogress nounwind uwtable
define linkonce_odr noundef double @_ZNSt14numeric_limitsIdE7epsilonEv() #3 comdat align 2 {
entry:
  ret double 0x3CB0000000000000
}

; Function Attrs: mustprogress uwtable
define linkonce_odr noundef double @_ZNK8QuantLib7Vasicek1aEv(ptr noundef nonnull align 8 dereferenceable(128) %this) #1 comdat align 2 {
entry:
  %this.addr = alloca ptr, align 8
  store ptr %this, ptr %this.addr, align 8, !tbaa !3
  %this1 = load ptr, ptr %this.addr, align 8
  %a_ = getelementptr inbounds nuw %"class.QuantLib::Vasicek", ptr %this1, i32 0, i32 2
  %0 = load ptr, ptr %a_, align 8, !tbaa !42
  %call = call noundef double @_ZNK8QuantLib9ParameterclEd(ptr noundef nonnull align 8 dereferenceable(48) %0, double noundef 0.000000e+00)
  ret double %call
}

; Function Attrs: mustprogress uwtable
define noundef double @_ZNK8QuantLib7Vasicek18discountBondOptionENS_6Option4TypeEddd(ptr noundef nonnull align 8 dereferenceable(128) %this, i32 noundef %type, double noundef %strike, double noundef %maturity, double noundef %bondMaturity) unnamed_addr #1 align 2 {
entry:
  %this.addr = alloca ptr, align 8
  %type.addr = alloca i32, align 4
  %strike.addr = alloca double, align 8
  %maturity.addr = alloca double, align 8
  %bondMaturity.addr = alloca double, align 8
  %v = alloca double, align 8
  %_a = alloca double, align 8
  %f = alloca double, align 8
  %k = alloca double, align 8
  store ptr %this, ptr %this.addr, align 8, !tbaa !3
  store i32 %type, ptr %type.addr, align 4, !tbaa !26
  store double %strike, ptr %strike.addr, align 8, !tbaa !11
  store double %maturity, ptr %maturity.addr, align 8, !tbaa !11
  store double %bondMaturity, ptr %bondMaturity.addr, align 8, !tbaa !11
  %this1 = load ptr, ptr %this.addr, align 8
  call void @llvm.lifetime.start.p0(i64 8, ptr %v) #15
  call void @llvm.lifetime.start.p0(i64 8, ptr %_a) #15
  %call = call noundef double @_ZNK8QuantLib7Vasicek1aEv(ptr noundef nonnull align 8 dereferenceable(128) %this1)
  store double %call, ptr %_a, align 8, !tbaa !11
  %0 = load double, ptr %maturity.addr, align 8, !tbaa !11
  %1 = call double @llvm.fabs.f64(double %0)
  %call2 = call noundef double @_ZNSt14numeric_limitsIdE7epsilonEv() #15
  %cmp = fcmp olt double %1, %call2
  br i1 %cmp, label %if.then, label %if.else

if.then:                                          ; preds = %entry
  store double 0.000000e+00, ptr %v, align 8, !tbaa !11
  br label %if.end23

if.else:                                          ; preds = %entry
  %2 = load double, ptr %_a, align 8, !tbaa !11
  %call3 = call noundef double @_ZNSt14numeric_limitsIdE7epsilonEv() #15
  %call4 = call double @sqrt(double noundef %call3) #15, !tbaa !47
  %cmp5 = fcmp olt double %2, %call4
  br i1 %cmp5, label %if.then6, label %if.else11

if.then6:                                         ; preds = %if.else
  %call7 = call noundef double @_ZNK8QuantLib7Vasicek5sigmaEv(ptr noundef nonnull align 8 dereferenceable(128) %this1)
  %3 = load double, ptr %maturity.addr, align 8, !tbaa !11
  %4 = load double, ptr %bondMaturity.addr, align 8, !tbaa !11
  %vtable = load ptr, ptr %this1, align 8, !tbaa !7
  %vfn = getelementptr inbounds ptr, ptr %vtable, i64 11
  %5 = load ptr, ptr %vfn, align 8
  %call8 = call noundef double %5(ptr noundef nonnull align 8 dereferenceable(128) %this1, double noundef %3, double noundef %4)
  %mul = fmul double %call7, %call8
  %6 = load double, ptr %maturity.addr, align 8, !tbaa !11
  %call9 = call double @sqrt(double noundef %6) #15, !tbaa !47
  %mul10 = fmul double %mul, %call9
  store double %mul10, ptr %v, align 8, !tbaa !11
  br label %if.end

if.else11:                                        ; preds = %if.else
  %call12 = call noundef double @_ZNK8QuantLib7Vasicek5sigmaEv(ptr noundef nonnull align 8 dereferenceable(128) %this1)
  %7 = load double, ptr %maturity.addr, align 8, !tbaa !11
  %8 = load double, ptr %bondMaturity.addr, align 8, !tbaa !11
  %vtable13 = load ptr, ptr %this1, align 8, !tbaa !7
  %vfn14 = getelementptr inbounds ptr, ptr %vtable13, i64 11
  %9 = load ptr, ptr %vfn14, align 8
  %call15 = call noundef double %9(ptr noundef nonnull align 8 dereferenceable(128) %this1, double noundef %7, double noundef %8)
  %mul16 = fmul double %call12, %call15
  %10 = load double, ptr %_a, align 8, !tbaa !11
  %mul17 = fmul double -2.000000e+00, %10
  %11 = load double, ptr %maturity.addr, align 8, !tbaa !11
  %mul18 = fmul double %mul17, %11
  %call19 = call double @exp(double noundef %mul18) #15, !tbaa !47
  %sub = fsub double 1.000000e+00, %call19
  %mul20 = fmul double 5.000000e-01, %sub
  %12 = load double, ptr %_a, align 8, !tbaa !11
  %div = fdiv double %mul20, %12
  %call21 = call double @sqrt(double noundef %div) #15, !tbaa !47
  %mul22 = fmul double %mul16, %call21
  store double %mul22, ptr %v, align 8, !tbaa !11
  br label %if.end

if.end:                                           ; preds = %if.else11, %if.then6
  br label %if.end23

if.end23:                                         ; preds = %if.end, %if.then
  call void @llvm.lifetime.start.p0(i64 8, ptr %f) #15
  %13 = load double, ptr %bondMaturity.addr, align 8, !tbaa !11
  %r0_ = getelementptr inbounds nuw %"class.QuantLib::Vasicek", ptr %this1, i32 0, i32 1
  %14 = load double, ptr %r0_, align 8, !tbaa !28
  %call24 = call noundef double @_ZNK8QuantLib20OneFactorAffineModel12discountBondEddd(ptr noundef nonnull align 8 dereferenceable(88) %this1, double noundef 0.000000e+00, double noundef %13, double noundef %14)
  store double %call24, ptr %f, align 8, !tbaa !11
  call void @llvm.lifetime.start.p0(i64 8, ptr %k) #15
  %15 = load double, ptr %maturity.addr, align 8, !tbaa !11
  %r0_25 = getelementptr inbounds nuw %"class.QuantLib::Vasicek", ptr %this1, i32 0, i32 1
  %16 = load double, ptr %r0_25, align 8, !tbaa !28
  %call26 = call noundef double @_ZNK8QuantLib20OneFactorAffineModel12discountBondEddd(ptr noundef nonnull align 8 dereferenceable(88) %this1, double noundef 0.000000e+00, double noundef %15, double noundef %16)
  %17 = load double, ptr %strike.addr, align 8, !tbaa !11
  %mul27 = fmul double %call26, %17
  store double %mul27, ptr %k, align 8, !tbaa !11
  %18 = load i32, ptr %type.addr, align 4, !tbaa !26
  %19 = load double, ptr %k, align 8, !tbaa !11
  %20 = load double, ptr %f, align 8, !tbaa !11
  %21 = load double, ptr %v, align 8, !tbaa !11
  %call28 = call noundef double @_ZN8QuantLib12blackFormulaENS_6Option4TypeEddddd(i32 noundef %18, double noundef %19, double noundef %20, double noundef %21, double noundef 1.000000e+00, double noundef 0.000000e+00)
  call void @llvm.lifetime.end.p0(i64 8, ptr %k) #15
  call void @llvm.lifetime.end.p0(i64 8, ptr %f) #15
  call void @llvm.lifetime.end.p0(i64 8, ptr %_a) #15
  call void @llvm.lifetime.end.p0(i64 8, ptr %v) #15
  ret double %call28
}