; Function Attrs: mustprogress uwtable
define noundef double @_ZNK8QuantLib7Vasicek18discountBondOptionENS_6Option4TypeEddd(ptr noundef nonnull align 8 dereferenceable(128) %this, i32 noundef %type, double noundef %strike, double noundef %maturity, double noundef %bondMaturity) unnamed_addr #1 align 2 {
entry:
  %a_.i = getelementptr inbounds nuw i8, ptr %this, i64 96
  %0 = load ptr, ptr %a_.i, align 8, !tbaa !62
  %1 = load ptr, ptr %0, align 8, !tbaa !63
  %cmp.not.i.i.i = icmp eq ptr %1, null
  br i1 %cmp.not.i.i.i, label %cond.false.i.i.i, label %_ZNK8QuantLib7Vasicek1aEv.exit, !prof !72

cond.false.i.i.i:                                 ; preds = %entry
  tail call void @_ZN5boost16assertion_failedEPKcS1_S1_l(ptr noundef nonnull @.str.9, ptr noundef nonnull @__PRETTY_FUNCTION__._ZNK5boost10shared_ptrIN8QuantLib9Parameter4ImplEEptEv, ptr noundef nonnull @.str.10, i64 noundef 784)
  %.pre.i.i.i = load ptr, ptr %0, align 8, !tbaa !63
  br label %_ZNK8QuantLib7Vasicek1aEv.exit

_ZNK8QuantLib7Vasicek1aEv.exit:                   ; preds = %entry, %cond.false.i.i.i
  %2 = phi ptr [ %1, %entry ], [ %.pre.i.i.i, %cond.false.i.i.i ]
  %params_.i.i = getelementptr inbounds nuw i8, ptr %0, i64 16
  %vtable.i.i = load ptr, ptr %2, align 8, !tbaa !14
  %vfn.i.i = getelementptr inbounds i8, ptr %vtable.i.i, i64 16
  %3 = load ptr, ptr %vfn.i.i, align 8
  %call2.i.i = tail call noundef double %3(ptr noundef nonnull align 8 dereferenceable(8) %2, ptr noundef nonnull align 8 dereferenceable(16) %params_.i.i, double noundef 0.000000e+00)
  %4 = tail call double @llvm.fabs.f64(double %maturity)
  %cmp = fcmp olt double %4, 0x3CB0000000000000
  br i1 %cmp, label %if.end23, label %if.else

if.else:                                          ; preds = %_ZNK8QuantLib7Vasicek1aEv.exit
  %cmp5 = fcmp olt double %call2.i.i, 0x3E50000000000000
  %sigma_.i = getelementptr inbounds nuw i8, ptr %this, i64 112
  %5 = load ptr, ptr %sigma_.i, align 8, !tbaa !68
  %6 = load ptr, ptr %5, align 8, !tbaa !63
  %cmp.not.i.i.i10 = icmp eq ptr %6, null
  br i1 %cmp5, label %if.then6, label %if.else11

if.then6:                                         ; preds = %if.else
  br i1 %cmp.not.i.i.i10, label %cond.false.i.i.i15, label %_ZNK8QuantLib7Vasicek5sigmaEv.exit, !prof !72

cond.false.i.i.i15:                               ; preds = %if.then6
  tail call void @_ZN5boost16assertion_failedEPKcS1_S1_l(ptr noundef nonnull @.str.9, ptr noundef nonnull @__PRETTY_FUNCTION__._ZNK5boost10shared_ptrIN8QuantLib9Parameter4ImplEEptEv, ptr noundef nonnull @.str.10, i64 noundef 784)
  %.pre.i.i.i16 = load ptr, ptr %5, align 8, !tbaa !63
  br label %_ZNK8QuantLib7Vasicek5sigmaEv.exit

_ZNK8QuantLib7Vasicek5sigmaEv.exit:               ; preds = %if.then6, %cond.false.i.i.i15
  %7 = phi ptr [ %6, %if.then6 ], [ %.pre.i.i.i16, %cond.false.i.i.i15 ]
  %params_.i.i11 = getelementptr inbounds nuw i8, ptr %5, i64 16
  %vtable.i.i12 = load ptr, ptr %7, align 8, !tbaa !14
  %vfn.i.i13 = getelementptr inbounds i8, ptr %vtable.i.i12, i64 16
  %8 = load ptr, ptr %vfn.i.i13, align 8
  %call2.i.i14 = tail call noundef double %8(ptr noundef nonnull align 8 dereferenceable(8) %7, ptr noundef nonnull align 8 dereferenceable(16) %params_.i.i11, double noundef 0.000000e+00)
  %vtable = load ptr, ptr %this, align 8, !tbaa !14
  %vfn = getelementptr inbounds i8, ptr %vtable, i64 88
  %9 = load ptr, ptr %vfn, align 8
  %call8 = tail call noundef double %9(ptr noundef nonnull align 8 dereferenceable(128) %this, double noundef %maturity, double noundef %bondMaturity)
  %mul = fmul double %call2.i.i14, %call8
  br label %if.end23.sink.split

if.else11:                                        ; preds = %if.else
  br i1 %cmp.not.i.i.i10, label %cond.false.i.i.i23, label %_ZNK8QuantLib7Vasicek5sigmaEv.exit25, !prof !72

cond.false.i.i.i23:                               ; preds = %if.else11
  tail call void @_ZN5boost16assertion_failedEPKcS1_S1_l(ptr noundef nonnull @.str.9, ptr noundef nonnull @__PRETTY_FUNCTION__._ZNK5boost10shared_ptrIN8QuantLib9Parameter4ImplEEptEv, ptr noundef nonnull @.str.10, i64 noundef 784)
  %.pre.i.i.i24 = load ptr, ptr %5, align 8, !tbaa !63
  br label %_ZNK8QuantLib7Vasicek5sigmaEv.exit25

_ZNK8QuantLib7Vasicek5sigmaEv.exit25:             ; preds = %if.else11, %cond.false.i.i.i23
  %10 = phi ptr [ %6, %if.else11 ], [ %.pre.i.i.i24, %cond.false.i.i.i23 ]
  %params_.i.i19 = getelementptr inbounds nuw i8, ptr %5, i64 16
  %vtable.i.i20 = load ptr, ptr %10, align 8, !tbaa !14
  %vfn.i.i21 = getelementptr inbounds i8, ptr %vtable.i.i20, i64 16
  %11 = load ptr, ptr %vfn.i.i21, align 8
  %call2.i.i22 = tail call noundef double %11(ptr noundef nonnull align 8 dereferenceable(8) %10, ptr noundef nonnull align 8 dereferenceable(16) %params_.i.i19, double noundef 0.000000e+00)
  %vtable13 = load ptr, ptr %this, align 8, !tbaa !14
  %vfn14 = getelementptr inbounds i8, ptr %vtable13, i64 88
  %12 = load ptr, ptr %vfn14, align 8
  %call15 = tail call noundef double %12(ptr noundef nonnull align 8 dereferenceable(128) %this, double noundef %maturity, double noundef %bondMaturity)
  %mul16 = fmul double %call2.i.i22, %call15
  %mul17 = fmul double %call2.i.i, -2.000000e+00
  %mul18 = fmul double %maturity, %mul17
  %call19 = tail call double @exp(double noundef %mul18) #26, !tbaa !73
  %sub = fsub double 1.000000e+00, %call19
  %mul20 = fmul double %sub, 5.000000e-01
  %div = fdiv double %mul20, %call2.i.i
  br label %if.end23.sink.split

if.end23.sink.split:                              ; preds = %_ZNK8QuantLib7Vasicek5sigmaEv.exit25, %_ZNK8QuantLib7Vasicek5sigmaEv.exit
  %maturity.sink = phi double [ %maturity, %_ZNK8QuantLib7Vasicek5sigmaEv.exit ], [ %div, %_ZNK8QuantLib7Vasicek5sigmaEv.exit25 ]
  %mul.sink = phi double [ %mul, %_ZNK8QuantLib7Vasicek5sigmaEv.exit ], [ %mul16, %_ZNK8QuantLib7Vasicek5sigmaEv.exit25 ]
  %call9 = tail call double @sqrt(double noundef %maturity.sink) #26, !tbaa !73
  %mul10 = fmul double %mul.sink, %call9
  br label %if.end23

if.end23:                                         ; preds = %if.end23.sink.split, %_ZNK8QuantLib7Vasicek1aEv.exit
  %v.0 = phi double [ 0.000000e+00, %_ZNK8QuantLib7Vasicek1aEv.exit ], [ %mul10, %if.end23.sink.split ]
  %r0_ = getelementptr inbounds nuw i8, ptr %this, i64 88
  %13 = load double, ptr %r0_, align 8, !tbaa !39
  %vtable.i = load ptr, ptr %this, align 8, !tbaa !14
  %vfn.i = getelementptr inbounds i8, ptr %vtable.i, i64 80
  %14 = load ptr, ptr %vfn.i, align 8
  %call.i = tail call noundef double %14(ptr noundef nonnull align 8 dereferenceable(88) %this, double noundef 0.000000e+00, double noundef %bondMaturity)
  %vtable2.i = load ptr, ptr %this, align 8, !tbaa !14
  %vfn3.i = getelementptr inbounds i8, ptr %vtable2.i, i64 88
  %15 = load ptr, ptr %vfn3.i, align 8
  %call4.i = tail call noundef double %15(ptr noundef nonnull align 8 dereferenceable(88) %this, double noundef 0.000000e+00, double noundef %bondMaturity)
  %fneg.i = fneg double %call4.i
  %mul.i = fmul double %13, %fneg.i
  %call5.i = tail call double @exp(double noundef %mul.i) #26, !tbaa !73
  %mul6.i = fmul double %call.i, %call5.i
  %16 = load double, ptr %r0_, align 8, !tbaa !39
  %vtable.i26 = load ptr, ptr %this, align 8, !tbaa !14
  %vfn.i27 = getelementptr inbounds i8, ptr %vtable.i26, i64 80
  %17 = load ptr, ptr %vfn.i27, align 8
  %call.i28 = tail call noundef double %17(ptr noundef nonnull align 8 dereferenceable(88) %this, double noundef 0.000000e+00, double noundef %maturity)
  %vtable2.i29 = load ptr, ptr %this, align 8, !tbaa !14
  %vfn3.i30 = getelementptr inbounds i8, ptr %vtable2.i29, i64 88
  %18 = load ptr, ptr %vfn3.i30, align 8
  %call4.i31 = tail call noundef double %18(ptr noundef nonnull align 8 dereferenceable(88) %this, double noundef 0.000000e+00, double noundef %maturity)
  %fneg.i32 = fneg double %call4.i31
  %mul.i33 = fmul double %16, %fneg.i32
  %call5.i34 = tail call double @exp(double noundef %mul.i33) #26, !tbaa !73
  %mul6.i35 = fmul double %call.i28, %call5.i34
  %mul27 = fmul double %strike, %mul6.i35
  %call28 = tail call noundef double @_ZN8QuantLib12blackFormulaENS_6Option4TypeEddddd(i32 noundef %type, double noundef %mul27, double noundef %mul6.i, double noundef %v.0, double noundef 1.000000e+00, double noundef 0.000000e+00)
  ret double %call28
}